; Function Attrs: mustprogress uwtable
define void @_ZN9grpc_core12experimental26RegisterAuditLoggerFactoryESt10unique_ptrINS0_18AuditLoggerFactoryESt14default_deleteIS2_EE(ptr nocapture noundef %factory) local_unnamed_addr #5 personality ptr @__gxx_personality_v0 {
entry:
  %agg.tmp = alloca %"class.std::unique_ptr.2", align 8
  %0 = load i64, ptr %factory, align 8
  store i64 %0, ptr %agg.tmp, align 8
  store ptr null, ptr %factory, align 8
  invoke void @_ZN9grpc_core12experimental19AuditLoggerRegistry15RegisterFactoryESt10unique_ptrINS0_18AuditLoggerFactoryESt14default_deleteIS3_EE(ptr noundef nonnull %agg.tmp)
          to label %invoke.cont unwind label %lpad

invoke.cont:                                      ; preds = %entry
  %1 = load ptr, ptr %agg.tmp, align 8
  %cmp.not.i = icmp eq ptr %1, null
  br i1 %cmp.not.i, label %_ZNSt10unique_ptrIN9grpc_core12experimental18AuditLoggerFactoryESt14default_deleteIS2_EED2Ev.exit, label %_ZNKSt14default_deleteIN9grpc_core12experimental18AuditLoggerFactoryEEclEPS2_.exit.i

_ZNKSt14default_deleteIN9grpc_core12experimental18AuditLoggerFactoryEEclEPS2_.exit.i: ; preds = %invoke.cont
  %vtable.i.i = load ptr, ptr %1, align 8
  %vfn.i.i = getelementptr inbounds i8, ptr %vtable.i.i, i64 8
  %2 = load ptr, ptr %vfn.i.i, align 8
  call void %2(ptr noundef nonnull align 8 dereferenceable(8) %1) #18
  br label %_ZNSt10unique_ptrIN9grpc_core12experimental18AuditLoggerFactoryESt14default_deleteIS2_EED2Ev.exit

_ZNSt10unique_ptrIN9grpc_core12experimental18AuditLoggerFactoryESt14default_deleteIS2_EED2Ev.exit: ; preds = %invoke.cont, %_ZNKSt14default_deleteIN9grpc_core12experimental18AuditLoggerFactoryEEclEPS2_.exit.i
  ret void

lpad:                                             ; preds = %entry
  %3 = landingpad { ptr, i32 }
          cleanup
  %4 = load ptr, ptr %agg.tmp, align 8
  %cmp.not.i1 = icmp eq ptr %4, null
  br i1 %cmp.not.i1, label %_ZNSt10unique_ptrIN9grpc_core12experimental18AuditLoggerFactoryESt14default_deleteIS2_EED2Ev.exit5, label %_ZNKSt14default_deleteIN9grpc_core12experimental18AuditLoggerFactoryEEclEPS2_.exit.i2

_ZNKSt14default_deleteIN9grpc_core12experimental18AuditLoggerFactoryEEclEPS2_.exit.i2: ; preds = %lpad
  %vtable.i.i3 = load ptr, ptr %4, align 8
  %vfn.i.i4 = getelementptr inbounds i8, ptr %vtable.i.i3, i64 8
  %5 = load ptr, ptr %vfn.i.i4, align 8
  call void %5(ptr noundef nonnull align 8 dereferenceable(8) %4) #18
  br label %_ZNSt10unique_ptrIN9grpc_core12experimental18AuditLoggerFactoryESt14default_deleteIS2_EED2Ev.exit5

_ZNSt10unique_ptrIN9grpc_core12experimental18AuditLoggerFactoryESt14default_deleteIS2_EED2Ev.exit5: ; preds = %lpad, %_ZNKSt14default_deleteIN9grpc_core12experimental18AuditLoggerFactoryEEclEPS2_.exit.i2
  resume { ptr, i32 } %3
}